; Function Attrs: nounwind uwtable
define noundef nonnull ptr @l_Array_anyMUnsafe_any___at_Lean_Elab_InfoTree_goalsAt_x3f___spec__3___boxed(ptr noundef %0, ptr noundef %1, ptr noundef %2, ptr noundef %3, ptr noundef %4, ptr noundef %5) local_unnamed_addr #0 {
  %7 = getelementptr i8, ptr %4, i64 8
  %.val30 = load i64, ptr %7, align 8, !tbaa !13
  %8 = ptrtoint ptr %4 to i64
  %9 = and i64 %8, 1
  %.not = icmp eq i64 %9, 0
  br i1 %.not, label %10, label %lean_dec.exit19

10:                                               ; preds = %6
  %11 = load i32, ptr %4, align 4, !tbaa !4
  %12 = icmp sgt i32 %11, 1
  br i1 %12, label %13, label %15, !prof !15

13:                                               ; preds = %10
  %14 = add nsw i32 %11, -1
  store i32 %14, ptr %4, align 4, !tbaa !4
  br label %lean_dec.exit19

15:                                               ; preds = %10
  %.not.i = icmp eq i32 %11, 0
  br i1 %.not.i, label %lean_dec.exit19, label %16

16:                                               ; preds = %15
  tail call void @lean_dec_ref_cold(ptr noundef nonnull %4) #7
  br label %lean_dec.exit19

lean_dec.exit19:                                  ; preds = %16, %15, %13, %6
  %17 = getelementptr i8, ptr %5, i64 8
  %.val = load i64, ptr %17, align 8, !tbaa !13
  %18 = ptrtoint ptr %5 to i64
  %19 = and i64 %18, 1
  %.not32 = icmp eq i64 %19, 0
  br i1 %.not32, label %20, label %lean_dec.exit18

20:                                               ; preds = %lean_dec.exit19
  %21 = load i32, ptr %5, align 4, !tbaa !4
  %22 = icmp sgt i32 %21, 1
  br i1 %22, label %23, label %25, !prof !15

23:                                               ; preds = %20
  %24 = add nsw i32 %21, -1
  store i32 %24, ptr %5, align 4, !tbaa !4
  br label %lean_dec.exit18

25:                                               ; preds = %20
  %.not.i20 = icmp eq i32 %21, 0
  br i1 %.not.i20, label %lean_dec.exit18, label %26

26:                                               ; preds = %25
  tail call void @lean_dec_ref_cold(ptr noundef nonnull %5) #7
  br label %lean_dec.exit18

lean_dec.exit18:                                  ; preds = %26, %25, %23, %lean_dec.exit19
  %.not29.i = icmp eq i64 %.val30, %.val
  br i1 %.not29.i, label %l_Array_anyMUnsafe_any___at_Lean_Elab_InfoTree_goalsAt_x3f___spec__3.exit, label %.lr.ph.i

.lr.ph.i:                                         ; preds = %lean_dec.exit18
  %27 = getelementptr inbounds nuw i8, ptr %3, i64 24
  br label %30

28:                                               ; preds = %lean_dec.exit.i
  %29 = add i64 %.01730.i, 1
  %.not.i31 = icmp eq i64 %29, %.val
  br i1 %.not.i31, label %l_Array_anyMUnsafe_any___at_Lean_Elab_InfoTree_goalsAt_x3f___spec__3.exit, label %30

30:                                               ; preds = %28, %.lr.ph.i
  %.01730.i = phi i64 [ %.val30, %.lr.ph.i ], [ %29, %28 ]
  %31 = getelementptr inbounds nuw [0 x ptr], ptr %27, i64 0, i64 %.01730.i
  %32 = load ptr, ptr %31, align 8, !tbaa !9
  %33 = ptrtoint ptr %32 to i64
  %34 = and i64 %33, 1
  %.not.i22.i = icmp eq i64 %34, 0
  br i1 %.not.i22.i, label %35, label %lean_array_uget.exit.i

35:                                               ; preds = %30
  %.val.i.i.i = load i32, ptr %32, align 4, !tbaa !4
  %36 = icmp sgt i32 %.val.i.i.i, 0
  br i1 %36, label %37, label %39, !prof !15

37:                                               ; preds = %35
  %38 = add nuw i32 %.val.i.i.i, 1
  store i32 %38, ptr %32, align 4, !tbaa !4
  br label %42

39:                                               ; preds = %35
  %.not.i.i.i = icmp eq i32 %.val.i.i.i, 0
  br i1 %.not.i.i.i, label %42, label %40

40:                                               ; preds = %39
  tail call void @lean_inc_ref_cold(ptr noundef nonnull %32) #7
  br label %42

lean_array_uget.exit.i:                           ; preds = %30
  %41 = tail call zeroext i8 @l_Lean_PersistentArray_anyMAux___at_Lean_Elab_InfoTree_goalsAt_x3f___spec__2(ptr noundef %0, ptr noundef %1, ptr noundef %2, ptr noundef %32)
  br label %lean_dec.exit.i

42:                                               ; preds = %40, %39, %37
  %43 = tail call zeroext i8 @l_Lean_PersistentArray_anyMAux___at_Lean_Elab_InfoTree_goalsAt_x3f___spec__2(ptr noundef %0, ptr noundef %1, ptr noundef %2, ptr noundef nonnull %32)
  %44 = load i32, ptr %32, align 4, !tbaa !4
  %45 = icmp sgt i32 %44, 1
  br i1 %45, label %46, label %48, !prof !15

46:                                               ; preds = %42
  %47 = add nsw i32 %44, -1
  store i32 %47, ptr %32, align 4, !tbaa !4
  br label %lean_dec.exit.i

48:                                               ; preds = %42
  %.not.i.i = icmp eq i32 %44, 0
  br i1 %.not.i.i, label %lean_dec.exit.i, label %49

49:                                               ; preds = %48
  tail call void @lean_dec_ref_cold(ptr noundef nonnull %32) #7
  br label %lean_dec.exit.i

lean_dec.exit.i:                                  ; preds = %49, %48, %46, %lean_array_uget.exit.i
  %50 = phi i8 [ %41, %lean_array_uget.exit.i ], [ %43, %46 ], [ %43, %48 ], [ %43, %49 ]
  %51 = icmp eq i8 %50, 0
  br i1 %51, label %28, label %l_Array_anyMUnsafe_any___at_Lean_Elab_InfoTree_goalsAt_x3f___spec__3.exit

l_Array_anyMUnsafe_any___at_Lean_Elab_InfoTree_goalsAt_x3f___spec__3.exit: ; preds = %28, %lean_dec.exit.i, %lean_dec.exit18
  %.2.ph.i = phi i64 [ 1, %lean_dec.exit18 ], [ 1, %28 ], [ 3, %lean_dec.exit.i ]
  %52 = ptrtoint ptr %3 to i64
  %53 = and i64 %52, 1
  %.not33 = icmp eq i64 %53, 0
  br i1 %.not33, label %54, label %lean_dec.exit17

54:                                               ; preds = %l_Array_anyMUnsafe_any___at_Lean_Elab_InfoTree_goalsAt_x3f___spec__3.exit
  %55 = load i32, ptr %3, align 4, !tbaa !4
  %56 = icmp sgt i32 %55, 1
  br i1 %56, label %57, label %59, !prof !15

57:                                               ; preds = %54
  %58 = add nsw i32 %55, -1
  store i32 %58, ptr %3, align 4, !tbaa !4
  br label %lean_dec.exit17

59:                                               ; preds = %54
  %.not.i22 = icmp eq i32 %55, 0
  br i1 %.not.i22, label %lean_dec.exit17, label %60

60:                                               ; preds = %59
  tail call void @lean_dec_ref_cold(ptr noundef nonnull %3) #7
  br label %lean_dec.exit17

lean_dec.exit17:                                  ; preds = %60, %59, %57, %l_Array_anyMUnsafe_any___at_Lean_Elab_InfoTree_goalsAt_x3f___spec__3.exit
  %61 = ptrtoint ptr %2 to i64
  %62 = and i64 %61, 1
  %.not34 = icmp eq i64 %62, 0
  br i1 %.not34, label %63, label %lean_dec.exit16

63:                                               ; preds = %lean_dec.exit17
  %64 = load i32, ptr %2, align 4, !tbaa !4
  %65 = icmp sgt i32 %64, 1
  br i1 %65, label %66, label %68, !prof !15

66:                                               ; preds = %63
  %67 = add nsw i32 %64, -1
  store i32 %67, ptr %2, align 4, !tbaa !4
  br label %lean_dec.exit16

68:                                               ; preds = %63
  %.not.i24 = icmp eq i32 %64, 0
  br i1 %.not.i24, label %lean_dec.exit16, label %69

69:                                               ; preds = %68
  tail call void @lean_dec_ref_cold(ptr noundef nonnull %2) #7
  br label %lean_dec.exit16

lean_dec.exit16:                                  ; preds = %69, %68, %66, %lean_dec.exit17
  %70 = ptrtoint ptr %1 to i64
  %71 = and i64 %70, 1
  %.not35 = icmp eq i64 %71, 0
  br i1 %.not35, label %72, label %lean_dec.exit15

72:                                               ; preds = %lean_dec.exit16
  %73 = load i32, ptr %1, align 4, !tbaa !4
  %74 = icmp sgt i32 %73, 1
  br i1 %74, label %75, label %77, !prof !15

75:                                               ; preds = %72
  %76 = add nsw i32 %73, -1
  store i32 %76, ptr %1, align 4, !tbaa !4
  br label %lean_dec.exit15

77:                                               ; preds = %72
  %.not.i26 = icmp eq i32 %73, 0
  br i1 %.not.i26, label %lean_dec.exit15, label %78

78:                                               ; preds = %77
  tail call void @lean_dec_ref_cold(ptr noundef nonnull %1) #7
  br label %lean_dec.exit15

lean_dec.exit15:                                  ; preds = %78, %77, %75, %lean_dec.exit16
  %79 = ptrtoint ptr %0 to i64
  %80 = and i64 %79, 1
  %.not36 = icmp eq i64 %80, 0
  br i1 %.not36, label %81, label %lean_dec.exit

81:                                               ; preds = %lean_dec.exit15
  %82 = load i32, ptr %0, align 4, !tbaa !4
  %83 = icmp sgt i32 %82, 1
  br i1 %83, label %84, label %86, !prof !15

84:                                               ; preds = %81
  %85 = add nsw i32 %82, -1
  store i32 %85, ptr %0, align 4, !tbaa !4
  br label %lean_dec.exit

86:                                               ; preds = %81
  %.not.i28 = icmp eq i32 %82, 0
  br i1 %.not.i28, label %lean_dec.exit, label %87

87:                                               ; preds = %86
  tail call void @lean_dec_ref_cold(ptr noundef nonnull %0) #7
  br label %lean_dec.exit

lean_dec.exit:                                    ; preds = %87, %86, %84, %lean_dec.exit15
  %88 = inttoptr i64 %.2.ph.i to ptr
  ret ptr %88
}